; Function Attrs: nounwind uwtable
define hidden void @luaK_ret(ptr noundef captures(none) %0, i32 noundef %1, i32 noundef %2) local_unnamed_addr #0 {
  %4 = shl i32 %1, 6
  %5 = shl i32 %2, 23
  %6 = add i32 %5, 8388608
  %7 = or i32 %4, %6
  %8 = or disjoint i32 %7, 30
  %9 = getelementptr inbounds nuw i8, ptr %0, i64 24
  %10 = load ptr, ptr %9, align 8, !tbaa !30
  %11 = getelementptr inbounds nuw i8, ptr %10, i64 8
  %12 = load i32, ptr %11, align 8, !tbaa !31
  %13 = tail call fastcc i32 @luaK_code(ptr noundef %0, i32 noundef %8, i32 noundef %12)
  ret void
}